target datalayout = "e-m:e-p270:32:32-p271:32:32-p272:64:64-i64:64-i128:128-f80:128-n8:16:32:64-S128"
target triple = "x86_64-pc-linux-gnu"

%struct.lean_object = type { i32, i32 }
%struct.lean_ctor_object = type { %struct.lean_object, [0 x ptr] }

; Function Attrs: inlinehint nounwind uwtable
define internal ptr @lean_to_ctor(ptr noundef %0) #1 {
  %2 = alloca ptr, align 8
  store ptr %0, ptr %2, align 8, !tbaa !4
  %3 = load ptr, ptr %2, align 8, !tbaa !4
  ret ptr %3
}

; Function Attrs: inlinehint nounwind uwtable
define internal ptr @lean_alloc_small_object(i32 noundef %0) #1 {
  %2 = alloca i32, align 4
  %3 = alloca ptr, align 8
  %4 = alloca ptr, align 8
  store i32 %0, ptr %2, align 4, !tbaa !16
  call void @lean_inc_heartbeat()
  %5 = load i32, ptr %2, align 4, !tbaa !16
  %6 = zext i32 %5 to i64
  %7 = call i64 @lean_align(i64 noundef %6, i64 noundef 8)
  %8 = trunc i64 %7 to i32
  store i32 %8, ptr %2, align 4, !tbaa !16
  call void @llvm.lifetime.start.p0(i64 8, ptr %3) #7
  %9 = load i32, ptr %2, align 4, !tbaa !16
  %10 = zext i32 %9 to i64
  %11 = call noalias ptr @mi_malloc_small(i64 noundef %10)
  store ptr %11, ptr %3, align 8, !tbaa !4
  %12 = load ptr, ptr %3, align 8, !tbaa !4
  %13 = icmp eq ptr %12, null
  br i1 %13, label %14, label %15

14:                                               ; preds = %1
  call void @lean_internal_panic_out_of_memory() #8
  unreachable

15:                                               ; preds = %1
  call void @llvm.lifetime.start.p0(i64 8, ptr %4) #7
  %16 = load ptr, ptr %3, align 8, !tbaa !4
  store ptr %16, ptr %4, align 8, !tbaa !4
  %17 = load i32, ptr %2, align 4, !tbaa !16
  %18 = load ptr, ptr %4, align 8, !tbaa !4
  %19 = getelementptr inbounds nuw %struct.lean_object, ptr %18, i32 0, i32 1
  %20 = load i32, ptr %19, align 4
  %21 = and i32 %17, 65535
  %22 = and i32 %20, -65536
  %23 = or i32 %22, %21
  store i32 %23, ptr %19, align 4
  %24 = load ptr, ptr %4, align 8, !tbaa !4
  call void @llvm.lifetime.end.p0(i64 8, ptr %4) #7
  call void @llvm.lifetime.end.p0(i64 8, ptr %3) #7
  ret ptr %24
}

; Function Attrs: inlinehint nounwind uwtable
define internal i64 @lean_align(i64 noundef %0, i64 noundef %1) #1 {
  %3 = alloca i64, align 8
  %4 = alloca i64, align 8
  store i64 %0, ptr %3, align 8, !tbaa !8
  store i64 %1, ptr %4, align 8, !tbaa !8
  %5 = load i64, ptr %3, align 8, !tbaa !8
  %6 = load i64, ptr %4, align 8, !tbaa !8
  %7 = udiv i64 %5, %6
  %8 = load i64, ptr %4, align 8, !tbaa !8
  %9 = mul i64 %7, %8
  %10 = load i64, ptr %4, align 8, !tbaa !8
  %11 = load i64, ptr %3, align 8, !tbaa !8
  %12 = load i64, ptr %4, align 8, !tbaa !8
  %13 = urem i64 %11, %12
  %14 = icmp ne i64 %13, 0
  %15 = zext i1 %14 to i32
  %16 = sext i32 %15 to i64
  %17 = mul i64 %10, %16
  %18 = add i64 %9, %17
  ret i64 %18
}

; Function Attrs: inlinehint nounwind uwtable
define internal ptr @lean_ctor_obj_cptr(ptr noundef %0) #1 {
  %2 = alloca ptr, align 8
  store ptr %0, ptr %2, align 8, !tbaa !4
  %3 = load ptr, ptr %2, align 8, !tbaa !4
  %4 = call ptr @lean_to_ctor(ptr noundef %3)
  %5 = getelementptr inbounds nuw %struct.lean_ctor_object, ptr %4, i32 0, i32 1
  %6 = getelementptr inbounds [0 x ptr], ptr %5, i64 0, i64 0
  ret ptr %6
}

; Function Attrs: inlinehint nounwind uwtable
define internal void @lean_set_st_header(ptr noundef %0, i32 noundef %1, i32 noundef %2) #1 {
  %4 = alloca ptr, align 8
  %5 = alloca i32, align 4
  %6 = alloca i32, align 4
  store ptr %0, ptr %4, align 8, !tbaa !4
  store i32 %1, ptr %5, align 4, !tbaa !16
  store i32 %2, ptr %6, align 4, !tbaa !16
  %7 = load ptr, ptr %4, align 8, !tbaa !4
  %8 = getelementptr inbounds nuw %struct.lean_object, ptr %7, i32 0, i32 0
  store i32 1, ptr %8, align 4, !tbaa !13
  %9 = load i32, ptr %5, align 4, !tbaa !16
  %10 = load ptr, ptr %4, align 8, !tbaa !4
  %11 = getelementptr inbounds nuw %struct.lean_object, ptr %10, i32 0, i32 1
  %12 = load i32, ptr %11, align 4
  %13 = and i32 %9, 255
  %14 = shl i32 %13, 24
  %15 = and i32 %12, 16777215
  %16 = or i32 %15, %14
  store i32 %16, ptr %11, align 4
  %17 = load i32, ptr %6, align 4, !tbaa !16
  %18 = load ptr, ptr %4, align 8, !tbaa !4
  %19 = getelementptr inbounds nuw %struct.lean_object, ptr %18, i32 0, i32 1
  %20 = load i32, ptr %19, align 4
  %21 = and i32 %17, 255
  %22 = shl i32 %21, 16
  %23 = and i32 %20, -16711681
  %24 = or i32 %23, %22
  store i32 %24, ptr %19, align 4
  ret void
}

; Function Attrs: inlinehint nounwind uwtable
define internal ptr @lean_alloc_ctor_memory(i32 noundef %0) #1 {
  %2 = alloca i32, align 4
  %3 = alloca i32, align 4
  %4 = alloca ptr, align 8
  %5 = alloca ptr, align 8
  store i32 %0, ptr %2, align 4, !tbaa !16
  call void @llvm.lifetime.start.p0(i64 4, ptr %3) #7
  %6 = load i32, ptr %2, align 4, !tbaa !16
  %7 = zext i32 %6 to i64
  %8 = call i64 @lean_align(i64 noundef %7, i64 noundef 8)
  %9 = trunc i64 %8 to i32
  store i32 %9, ptr %3, align 4, !tbaa !16
  call void @llvm.lifetime.start.p0(i64 8, ptr %4) #7
  %10 = load i32, ptr %2, align 4, !tbaa !16
  %11 = call ptr @lean_alloc_small_object(i32 noundef %10)
  store ptr %11, ptr %4, align 8, !tbaa !4
  %12 = load i32, ptr %3, align 4, !tbaa !16
  %13 = load i32, ptr %2, align 4, !tbaa !16
  %14 = icmp ugt i32 %12, %13
  br i1 %14, label %15, label %22

15:                                               ; preds = %1
  call void @llvm.lifetime.start.p0(i64 8, ptr %5) #7
  %16 = load ptr, ptr %4, align 8, !tbaa !4
  %17 = load i32, ptr %3, align 4, !tbaa !16
  %18 = zext i32 %17 to i64
  %19 = getelementptr inbounds nuw i8, ptr %16, i64 %18
  store ptr %19, ptr %5, align 8, !tbaa !23
  %20 = load ptr, ptr %5, align 8, !tbaa !23
  %21 = getelementptr inbounds i64, ptr %20, i64 -1
  store i64 0, ptr %21, align 8, !tbaa !8
  call void @llvm.lifetime.end.p0(i64 8, ptr %5) #7
  br label %22

22:                                               ; preds = %15, %1
  %23 = load ptr, ptr %4, align 8, !tbaa !4
  call void @llvm.lifetime.end.p0(i64 8, ptr %4) #7
  call void @llvm.lifetime.end.p0(i64 4, ptr %3) #7
  ret ptr %23
}

; Function Attrs: inlinehint nounwind uwtable
define internal void @lean_ctor_set_uint64(ptr noundef %0, i32 noundef %1, i64 noundef %2) #1 {
  %4 = alloca ptr, align 8
  %5 = alloca i32, align 4
  %6 = alloca i64, align 8
  store ptr %0, ptr %4, align 8, !tbaa !4
  store i32 %1, ptr %5, align 4, !tbaa !16
  store i64 %2, ptr %6, align 8, !tbaa !8
  %7 = load i64, ptr %6, align 8, !tbaa !8
  %8 = load ptr, ptr %4, align 8, !tbaa !4
  %9 = call ptr @lean_ctor_obj_cptr(ptr noundef %8)
  %10 = load i32, ptr %5, align 4, !tbaa !16
  %11 = zext i32 %10 to i64
  %12 = getelementptr inbounds nuw i8, ptr %9, i64 %11
  store i64 %7, ptr %12, align 8, !tbaa !8
  ret void
}

; Function Attrs: inlinehint nounwind uwtable
define internal ptr @lean_alloc_ctor(i32 noundef %0, i32 noundef %1, i32 noundef %2) #1 {
  %4 = alloca i32, align 4
  %5 = alloca i32, align 4
  %6 = alloca i32, align 4
  %7 = alloca ptr, align 8
  store i32 %0, ptr %4, align 4, !tbaa !16
  store i32 %1, ptr %5, align 4, !tbaa !16
  store i32 %2, ptr %6, align 4, !tbaa !16
  call void @llvm.lifetime.start.p0(i64 8, ptr %7) #7
  %8 = load i32, ptr %5, align 4, !tbaa !16
  %9 = zext i32 %8 to i64
  %10 = mul i64 8, %9
  %11 = add i64 8, %10
  %12 = load i32, ptr %6, align 4, !tbaa !16
  %13 = zext i32 %12 to i64
  %14 = add i64 %11, %13
  %15 = trunc i64 %14 to i32
  %16 = call ptr @lean_alloc_ctor_memory(i32 noundef %15)
  store ptr %16, ptr %7, align 8, !tbaa !4
  %17 = load ptr, ptr %7, align 8, !tbaa !4
  %18 = load i32, ptr %4, align 4, !tbaa !16
  %19 = load i32, ptr %5, align 4, !tbaa !16
  call void @lean_set_st_header(ptr noundef %17, i32 noundef %18, i32 noundef %19)
  %20 = load ptr, ptr %7, align 8, !tbaa !4
  call void @llvm.lifetime.end.p0(i64 8, ptr %7) #7
  ret ptr %20
}

; Function Attrs: alwaysinline nounwind uwtable
define internal void @lean_dec_ref(ptr noundef %0) #0 {
  %2 = alloca ptr, align 8
  store ptr %0, ptr %2, align 8, !tbaa !4
  %3 = load ptr, ptr %2, align 8, !tbaa !4
  %4 = getelementptr inbounds nuw %struct.lean_object, ptr %3, i32 0, i32 0
  %5 = load i32, ptr %4, align 4, !tbaa !13
  %6 = icmp sgt i32 %5, 1
  %7 = zext i1 %6 to i32
  %8 = sext i32 %7 to i64
  %9 = call i64 @llvm.expect.i64(i64 %8, i64 1)
  %10 = icmp ne i64 %9, 0
  br i1 %10, label %11, label %16

11:                                               ; preds = %1
  %12 = load ptr, ptr %2, align 8, !tbaa !4
  %13 = getelementptr inbounds nuw %struct.lean_object, ptr %12, i32 0, i32 0
  %14 = load i32, ptr %13, align 4, !tbaa !13
  %15 = add i32 %14, -1
  store i32 %15, ptr %13, align 4, !tbaa !13
  br label %24

16:                                               ; preds = %1
  %17 = load ptr, ptr %2, align 8, !tbaa !4
  %18 = getelementptr inbounds nuw %struct.lean_object, ptr %17, i32 0, i32 0
  %19 = load i32, ptr %18, align 4, !tbaa !13
  %20 = icmp ne i32 %19, 0
  br i1 %20, label %21, label %23

21:                                               ; preds = %16
  %22 = load ptr, ptr %2, align 8, !tbaa !4
  call void @lean_dec_ref_cold(ptr noundef %22)
  br label %23

23:                                               ; preds = %21, %16
  br label %24

24:                                               ; preds = %23, %11
  ret void
}

; Function Attrs: alwaysinline nounwind uwtable
define internal zeroext i1 @lean_is_scalar(ptr noundef %0) #0 {
  %2 = alloca ptr, align 8
  store ptr %0, ptr %2, align 8, !tbaa !4
  %3 = load ptr, ptr %2, align 8, !tbaa !4
  %4 = ptrtoint ptr %3 to i64
  %5 = and i64 %4, 1
  %6 = icmp eq i64 %5, 1
  ret i1 %6
}

; Function Attrs: inlinehint nounwind uwtable
define internal ptr @lean_box_uint64(i64 noundef %0) #1 {
  %2 = alloca i64, align 8
  %3 = alloca ptr, align 8
  store i64 %0, ptr %2, align 8, !tbaa !8
  call void @llvm.lifetime.start.p0(i64 8, ptr %3) #7
  %4 = call ptr @lean_alloc_ctor(i32 noundef 0, i32 noundef 0, i32 noundef 8)
  store ptr %4, ptr %3, align 8, !tbaa !4
  %5 = load ptr, ptr %3, align 8, !tbaa !4
  %6 = load i64, ptr %2, align 8, !tbaa !8
  call void @lean_ctor_set_uint64(ptr noundef %5, i32 noundef 0, i64 noundef %6)
  %7 = load ptr, ptr %3, align 8, !tbaa !4
  call void @llvm.lifetime.end.p0(i64 8, ptr %3) #7
  ret ptr %7
}

; Function Attrs: nounwind uwtable
define i64 @l___private_Lean_Data_Lsp_LanguageFeatures_0__Lean_Lsp_hashSymbolKind____x40_Lean_Data_Lsp_LanguageFeatures___hyg_4846_(i8 noundef zeroext %0) #2 {
  %2 = alloca i64, align 8
  %3 = alloca i8, align 1
  %4 = alloca i64, align 8
  %5 = alloca i64, align 8
  %6 = alloca i64, align 8
  %7 = alloca i64, align 8
  %8 = alloca i64, align 8
  %9 = alloca i64, align 8
  %10 = alloca i64, align 8
  %11 = alloca i64, align 8
  %12 = alloca i64, align 8
  %13 = alloca i64, align 8
  %14 = alloca i64, align 8
  %15 = alloca i64, align 8
  %16 = alloca i64, align 8
  %17 = alloca i64, align 8
  %18 = alloca i64, align 8
  %19 = alloca i64, align 8
  %20 = alloca i64, align 8
  %21 = alloca i64, align 8
  %22 = alloca i64, align 8
  %23 = alloca i64, align 8
  %24 = alloca i64, align 8
  %25 = alloca i64, align 8
  %26 = alloca i64, align 8
  %27 = alloca i64, align 8
  %28 = alloca i64, align 8
  %29 = alloca i64, align 8
  store i8 %0, ptr %3, align 1, !tbaa !12
  br label %30

30:                                               ; preds = %1
  %31 = load i8, ptr %3, align 1, !tbaa !12
  %32 = zext i8 %31 to i32
  switch i32 %32, label %83 [
    i32 0, label %33
    i32 1, label %35
    i32 2, label %37
    i32 3, label %39
    i32 4, label %41
    i32 5, label %43
    i32 6, label %45
    i32 7, label %47
    i32 8, label %49
    i32 9, label %51
    i32 10, label %53
    i32 11, label %55
    i32 12, label %57
    i32 13, label %59
    i32 14, label %61
    i32 15, label %63
    i32 16, label %65
    i32 17, label %67
    i32 18, label %69
    i32 19, label %71
    i32 20, label %73
    i32 21, label %75
    i32 22, label %77
    i32 23, label %79
    i32 24, label %81
  ]

33:                                               ; preds = %30
  call void @llvm.lifetime.start.p0(i64 8, ptr %4) #7
  store i64 0, ptr %4, align 8, !tbaa !8
  %34 = load i64, ptr %4, align 8, !tbaa !8
  store i64 %34, ptr %2, align 8
  call void @llvm.lifetime.end.p0(i64 8, ptr %4) #7
  br label %85

35:                                               ; preds = %30
  call void @llvm.lifetime.start.p0(i64 8, ptr %5) #7
  store i64 1, ptr %5, align 8, !tbaa !8
  %36 = load i64, ptr %5, align 8, !tbaa !8
  store i64 %36, ptr %2, align 8
  call void @llvm.lifetime.end.p0(i64 8, ptr %5) #7
  br label %85

37:                                               ; preds = %30
  call void @llvm.lifetime.start.p0(i64 8, ptr %6) #7
  store i64 2, ptr %6, align 8, !tbaa !8
  %38 = load i64, ptr %6, align 8, !tbaa !8
  store i64 %38, ptr %2, align 8
  call void @llvm.lifetime.end.p0(i64 8, ptr %6) #7
  br label %85

39:                                               ; preds = %30
  call void @llvm.lifetime.start.p0(i64 8, ptr %7) #7
  store i64 3, ptr %7, align 8, !tbaa !8
  %40 = load i64, ptr %7, align 8, !tbaa !8
  store i64 %40, ptr %2, align 8
  call void @llvm.lifetime.end.p0(i64 8, ptr %7) #7
  br label %85

41:                                               ; preds = %30
  call void @llvm.lifetime.start.p0(i64 8, ptr %8) #7
  store i64 4, ptr %8, align 8, !tbaa !8
  %42 = load i64, ptr %8, align 8, !tbaa !8
  store i64 %42, ptr %2, align 8
  call void @llvm.lifetime.end.p0(i64 8, ptr %8) #7
  br label %85

43:                                               ; preds = %30
  call void @llvm.lifetime.start.p0(i64 8, ptr %9) #7
  store i64 5, ptr %9, align 8, !tbaa !8
  %44 = load i64, ptr %9, align 8, !tbaa !8
  store i64 %44, ptr %2, align 8
  call void @llvm.lifetime.end.p0(i64 8, ptr %9) #7
  br label %85

45:                                               ; preds = %30
  call void @llvm.lifetime.start.p0(i64 8, ptr %10) #7
  store i64 6, ptr %10, align 8, !tbaa !8
  %46 = load i64, ptr %10, align 8, !tbaa !8
  store i64 %46, ptr %2, align 8
  call void @llvm.lifetime.end.p0(i64 8, ptr %10) #7
  br label %85

47:                                               ; preds = %30
  call void @llvm.lifetime.start.p0(i64 8, ptr %11) #7
  store i64 7, ptr %11, align 8, !tbaa !8
  %48 = load i64, ptr %11, align 8, !tbaa !8
  store i64 %48, ptr %2, align 8
  call void @llvm.lifetime.end.p0(i64 8, ptr %11) #7
  br label %85

49:                                               ; preds = %30
  call void @llvm.lifetime.start.p0(i64 8, ptr %12) #7
  store i64 8, ptr %12, align 8, !tbaa !8
  %50 = load i64, ptr %12, align 8, !tbaa !8
  store i64 %50, ptr %2, align 8
  call void @llvm.lifetime.end.p0(i64 8, ptr %12) #7
  br label %85

51:                                               ; preds = %30
  call void @llvm.lifetime.start.p0(i64 8, ptr %13) #7
  store i64 9, ptr %13, align 8, !tbaa !8
  %52 = load i64, ptr %13, align 8, !tbaa !8
  store i64 %52, ptr %2, align 8
  call void @llvm.lifetime.end.p0(i64 8, ptr %13) #7
  br label %85

53:                                               ; preds = %30
  call void @llvm.lifetime.start.p0(i64 8, ptr %14) #7
  store i64 10, ptr %14, align 8, !tbaa !8
  %54 = load i64, ptr %14, align 8, !tbaa !8
  store i64 %54, ptr %2, align 8
  call void @llvm.lifetime.end.p0(i64 8, ptr %14) #7
  br label %85

55:                                               ; preds = %30
  call void @llvm.lifetime.start.p0(i64 8, ptr %15) #7
  store i64 11, ptr %15, align 8, !tbaa !8
  %56 = load i64, ptr %15, align 8, !tbaa !8
  store i64 %56, ptr %2, align 8
  call void @llvm.lifetime.end.p0(i64 8, ptr %15) #7
  br label %85

57:                                               ; preds = %30
  call void @llvm.lifetime.start.p0(i64 8, ptr %16) #7
  store i64 12, ptr %16, align 8, !tbaa !8
  %58 = load i64, ptr %16, align 8, !tbaa !8
  store i64 %58, ptr %2, align 8
  call void @llvm.lifetime.end.p0(i64 8, ptr %16) #7
  br label %85

59:                                               ; preds = %30
  call void @llvm.lifetime.start.p0(i64 8, ptr %17) #7
  store i64 13, ptr %17, align 8, !tbaa !8
  %60 = load i64, ptr %17, align 8, !tbaa !8
  store i64 %60, ptr %2, align 8
  call void @llvm.lifetime.end.p0(i64 8, ptr %17) #7
  br label %85

61:                                               ; preds = %30
  call void @llvm.lifetime.start.p0(i64 8, ptr %18) #7
  store i64 14, ptr %18, align 8, !tbaa !8
  %62 = load i64, ptr %18, align 8, !tbaa !8
  store i64 %62, ptr %2, align 8
  call void @llvm.lifetime.end.p0(i64 8, ptr %18) #7
  br label %85

63:                                               ; preds = %30
  call void @llvm.lifetime.start.p0(i64 8, ptr %19) #7
  store i64 15, ptr %19, align 8, !tbaa !8
  %64 = load i64, ptr %19, align 8, !tbaa !8
  store i64 %64, ptr %2, align 8
  call void @llvm.lifetime.end.p0(i64 8, ptr %19) #7
  br label %85

65:                                               ; preds = %30
  call void @llvm.lifetime.start.p0(i64 8, ptr %20) #7
  store i64 16, ptr %20, align 8, !tbaa !8
  %66 = load i64, ptr %20, align 8, !tbaa !8
  store i64 %66, ptr %2, align 8
  call void @llvm.lifetime.end.p0(i64 8, ptr %20) #7
  br label %85

67:                                               ; preds = %30
  call void @llvm.lifetime.start.p0(i64 8, ptr %21) #7
  store i64 17, ptr %21, align 8, !tbaa !8
  %68 = load i64, ptr %21, align 8, !tbaa !8
  store i64 %68, ptr %2, align 8
  call void @llvm.lifetime.end.p0(i64 8, ptr %21) #7
  br label %85

69:                                               ; preds = %30
  call void @llvm.lifetime.start.p0(i64 8, ptr %22) #7
  store i64 18, ptr %22, align 8, !tbaa !8
  %70 = load i64, ptr %22, align 8, !tbaa !8
  store i64 %70, ptr %2, align 8
  call void @llvm.lifetime.end.p0(i64 8, ptr %22) #7
  br label %85

71:                                               ; preds = %30
  call void @llvm.lifetime.start.p0(i64 8, ptr %23) #7
  store i64 19, ptr %23, align 8, !tbaa !8
  %72 = load i64, ptr %23, align 8, !tbaa !8
  store i64 %72, ptr %2, align 8
  call void @llvm.lifetime.end.p0(i64 8, ptr %23) #7
  br label %85

73:                                               ; preds = %30
  call void @llvm.lifetime.start.p0(i64 8, ptr %24) #7
  store i64 20, ptr %24, align 8, !tbaa !8
  %74 = load i64, ptr %24, align 8, !tbaa !8
  store i64 %74, ptr %2, align 8
  call void @llvm.lifetime.end.p0(i64 8, ptr %24) #7
  br label %85

75:                                               ; preds = %30
  call void @llvm.lifetime.start.p0(i64 8, ptr %25) #7
  store i64 21, ptr %25, align 8, !tbaa !8
  %76 = load i64, ptr %25, align 8, !tbaa !8
  store i64 %76, ptr %2, align 8
  call void @llvm.lifetime.end.p0(i64 8, ptr %25) #7
  br label %85

77:                                               ; preds = %30
  call void @llvm.lifetime.start.p0(i64 8, ptr %26) #7
  store i64 22, ptr %26, align 8, !tbaa !8
  %78 = load i64, ptr %26, align 8, !tbaa !8
  store i64 %78, ptr %2, align 8
  call void @llvm.lifetime.end.p0(i64 8, ptr %26) #7
  br label %85

79:                                               ; preds = %30
  call void @llvm.lifetime.start.p0(i64 8, ptr %27) #7
  store i64 23, ptr %27, align 8, !tbaa !8
  %80 = load i64, ptr %27, align 8, !tbaa !8
  store i64 %80, ptr %2, align 8
  call void @llvm.lifetime.end.p0(i64 8, ptr %27) #7
  br label %85

81:                                               ; preds = %30
  call void @llvm.lifetime.start.p0(i64 8, ptr %28) #7
  store i64 24, ptr %28, align 8, !tbaa !8
  %82 = load i64, ptr %28, align 8, !tbaa !8
  store i64 %82, ptr %2, align 8
  call void @llvm.lifetime.end.p0(i64 8, ptr %28) #7
  br label %85

83:                                               ; preds = %30
  call void @llvm.lifetime.start.p0(i64 8, ptr %29) #7
  store i64 25, ptr %29, align 8, !tbaa !8
  %84 = load i64, ptr %29, align 8, !tbaa !8
  store i64 %84, ptr %2, align 8
  call void @llvm.lifetime.end.p0(i64 8, ptr %29) #7
  br label %85

85:                                               ; preds = %83, %81, %79, %77, %75, %73, %71, %69, %67, %65, %63, %61, %59, %57, %55, %53, %51, %49, %47, %45, %43, %41, %39, %37, %35, %33
  %86 = load i64, ptr %2, align 8
  ret i64 %86
}

; Function Attrs: alwaysinline nounwind uwtable
define internal void @lean_dec(ptr noundef %0) #0 {
  %2 = alloca ptr, align 8
  store ptr %0, ptr %2, align 8, !tbaa !4
  %3 = load ptr, ptr %2, align 8, !tbaa !4
  %4 = call zeroext i1 @lean_is_scalar(ptr noundef %3)
  br i1 %4, label %7, label %5

5:                                                ; preds = %1
  %6 = load ptr, ptr %2, align 8, !tbaa !4
  call void @lean_dec_ref(ptr noundef %6)
  br label %7

7:                                                ; preds = %5, %1
  ret void
}

; Function Attrs: inlinehint nounwind uwtable
define internal i64 @lean_unbox(ptr noundef %0) #1 {
  %2 = alloca ptr, align 8
  store ptr %0, ptr %2, align 8, !tbaa !4
  %3 = load ptr, ptr %2, align 8, !tbaa !4
  %4 = ptrtoint ptr %3 to i64
  %5 = lshr i64 %4, 1
  ret i64 %5
}

; Function Attrs: nounwind uwtable
define ptr @l___private_Lean_Data_Lsp_LanguageFeatures_0__Lean_Lsp_hashSymbolKind____x40_Lean_Data_Lsp_LanguageFeatures___hyg_4846____boxed(ptr noundef %0) #2 {
  %2 = alloca ptr, align 8
  %3 = alloca i8, align 1
  %4 = alloca i64, align 8
  %5 = alloca ptr, align 8
  store ptr %0, ptr %2, align 8, !tbaa !4
  br label %6

6:                                                ; preds = %1
  call void @llvm.lifetime.start.p0(i64 1, ptr %3) #7
  call void @llvm.lifetime.start.p0(i64 8, ptr %4) #7
  call void @llvm.lifetime.start.p0(i64 8, ptr %5) #7
  %7 = load ptr, ptr %2, align 8, !tbaa !4
  %8 = call i64 @lean_unbox(ptr noundef %7)
  %9 = trunc i64 %8 to i8
  store i8 %9, ptr %3, align 1, !tbaa !12
  %10 = load ptr, ptr %2, align 8, !tbaa !4
  call void @lean_dec(ptr noundef %10)
  %11 = load i8, ptr %3, align 1, !tbaa !12
  %12 = call i64 @l___private_Lean_Data_Lsp_LanguageFeatures_0__Lean_Lsp_hashSymbolKind____x40_Lean_Data_Lsp_LanguageFeatures___hyg_4846_(i8 noundef zeroext %11)
  store i64 %12, ptr %4, align 8, !tbaa !8
  %13 = load i64, ptr %4, align 8, !tbaa !8
  %14 = call ptr @lean_box_uint64(i64 noundef %13)
  store ptr %14, ptr %5, align 8, !tbaa !4
  %15 = load ptr, ptr %5, align 8, !tbaa !4
  call void @llvm.lifetime.end.p0(i64 8, ptr %5) #7
  call void @llvm.lifetime.end.p0(i64 8, ptr %4) #7
  call void @llvm.lifetime.end.p0(i64 1, ptr %3) #7
  ret ptr %15
}